target datalayout = "e-m:e-p270:32:32-p271:32:32-p272:64:64-i64:64-i128:128-f80:128-n8:16:32:64-S128"
target triple = "x86_64-pc-linux-gnu"

%class.LambdaProxyClassKey = type { ptr, ptr, ptr, ptr, ptr, ptr }

; Function Attrs: mustprogress nounwind uwtable
define hidden noundef i32 @_ZNK19LambdaProxyClassKey4hashEv(ptr noundef nonnull align 8 dereferenceable(48) %0) #1 align 2 {
  %2 = alloca ptr, align 8
  store ptr %0, ptr %2, align 8
  %3 = load ptr, ptr %2, align 8
  %4 = getelementptr inbounds %class.LambdaProxyClassKey, ptr %3, i32 0, i32 0
  %5 = load ptr, ptr %4, align 8
  %6 = call noundef i32 @_ZN22SystemDictionaryShared26hash_for_shared_dictionaryEPh(ptr noundef %5)
  %7 = getelementptr inbounds %class.LambdaProxyClassKey, ptr %3, i32 0, i32 1
  %8 = load ptr, ptr %7, align 8
  %9 = call noundef i32 @_ZN22SystemDictionaryShared26hash_for_shared_dictionaryEPh(ptr noundef %8)
  %10 = add i32 %6, %9
  %11 = getelementptr inbounds %class.LambdaProxyClassKey, ptr %3, i32 0, i32 2
  %12 = load ptr, ptr %11, align 8
  %13 = call noundef i32 @_ZN22SystemDictionaryShared26hash_for_shared_dictionaryEPh(ptr noundef %12)
  %14 = add i32 %10, %13
  %15 = getelementptr inbounds %class.LambdaProxyClassKey, ptr %3, i32 0, i32 3
  %16 = load ptr, ptr %15, align 8
  %17 = call noundef i32 @_ZN22SystemDictionaryShared26hash_for_shared_dictionaryEPh(ptr noundef %16)
  %18 = add i32 %14, %17
  %19 = getelementptr inbounds %class.LambdaProxyClassKey, ptr %3, i32 0, i32 5
  %20 = load ptr, ptr %19, align 8
  %21 = call noundef i32 @_ZN22SystemDictionaryShared26hash_for_shared_dictionaryEPh(ptr noundef %20)
  %22 = add i32 %18, %21
  ret i32 %22
}