; Function Attrs: mustprogress nounwind uwtable
define hidden noundef i32 @_ZNK19LambdaProxyClassKey4hashEv(ptr nocapture noundef nonnull readonly align 8 dereferenceable(48) %0) local_unnamed_addr #0 align 2 {
  %2 = load ptr, ptr %0, align 8
  %3 = tail call noundef i32 @_ZN22SystemDictionaryShared26hash_for_shared_dictionaryEPh(ptr noundef %2) #4
  %4 = getelementptr inbounds i8, ptr %0, i64 8
  %5 = load ptr, ptr %4, align 8
  %6 = tail call noundef i32 @_ZN22SystemDictionaryShared26hash_for_shared_dictionaryEPh(ptr noundef %5) #4
  %7 = add i32 %6, %3
  %8 = getelementptr inbounds i8, ptr %0, i64 16
  %9 = load ptr, ptr %8, align 8
  %10 = tail call noundef i32 @_ZN22SystemDictionaryShared26hash_for_shared_dictionaryEPh(ptr noundef %9) #4
  %11 = add i32 %7, %10
  %12 = getelementptr inbounds i8, ptr %0, i64 24
  %13 = load ptr, ptr %12, align 8
  %14 = tail call noundef i32 @_ZN22SystemDictionaryShared26hash_for_shared_dictionaryEPh(ptr noundef %13) #4
  %15 = add i32 %11, %14
  %16 = getelementptr inbounds i8, ptr %0, i64 40
  %17 = load ptr, ptr %16, align 8
  %18 = tail call noundef i32 @_ZN22SystemDictionaryShared26hash_for_shared_dictionaryEPh(ptr noundef %17) #4
  %19 = add i32 %15, %18
  ret i32 %19
}